; Function Attrs: mustprogress uwtable
define void @_ZN5arrow7compute12IndexOptionsC2Ev(ptr noundef nonnull writeonly align 8 captures(none) dereferenceable(32) initializes((0, 32)) %0) unnamed_addr #3 align 2 personality ptr @__gxx_personality_v0 {
_ZNSt12__shared_ptrIN5arrow10NullScalarELN9__gnu_cxx12_Lock_policyE2EED2Ev.exit:
  %1 = alloca %"class.std::allocator.87", align 1
  %2 = alloca %"class.std::shared_ptr.23", align 8
  call void @llvm.lifetime.start.p0(i64 16, ptr nonnull %2) #24
  call void @llvm.lifetime.start.p0(i64 1, ptr nonnull %1) #24, !noalias !78
  call void @_ZNSt12__shared_ptrIN5arrow10NullScalarELN9__gnu_cxx12_Lock_policyE2EEC2ISaIvEJEEESt20_Sp_alloc_shared_tagIT_EDpOT0_(ptr noundef nonnull align 8 dereferenceable(16) %2, ptr nonnull %1)
  call void @llvm.lifetime.end.p0(i64 1, ptr nonnull %1) #24, !noalias !78
  %3 = load ptr, ptr %2, align 8, !tbaa !81
  %4 = getelementptr inbounds nuw i8, ptr %2, i64 8
  %5 = load ptr, ptr %4, align 8, !tbaa !77
  %6 = load ptr, ptr @_ZN5arrow7compute8internal12_GLOBAL__N_117kIndexOptionsTypeE, align 8, !tbaa !32
  %7 = getelementptr inbounds nuw i8, ptr %0, i64 8
  store ptr %6, ptr %7, align 8, !tbaa !35
  store ptr getelementptr inbounds nuw inrange(-16, 16) (i8, ptr @_ZTVN5arrow7compute12IndexOptionsE, i64 16), ptr %0, align 8, !tbaa !37
  %8 = getelementptr inbounds nuw i8, ptr %0, i64 16
  store ptr %3, ptr %8, align 8, !tbaa !72
  %9 = getelementptr inbounds nuw i8, ptr %0, i64 24
  store ptr %5, ptr %9, align 8, !tbaa !77
  call void @llvm.lifetime.end.p0(i64 16, ptr nonnull %2) #24
  ret void
}